; Function Attrs: nounwind uwtable
define { <2 x float>, <2 x float> } @b2Body_GetMassData(i64 %0) local_unnamed_addr #0 {
  %.sroa.2.0.extract.shift = lshr i64 %0, 32
  %2 = trunc nuw i64 %.sroa.2.0.extract.shift to i32
  %3 = and i32 %2, 65535
  %4 = tail call ptr @b2GetWorld(i32 noundef %3) #10
  %5 = getelementptr inbounds nuw i8, ptr %4, i64 1032
  %.val.i = load ptr, ptr %5, align 8, !tbaa !10
  %6 = shl i64 %0, 32
  %sext.i = add i64 %6, -4294967296
  %7 = ashr exact i64 %sext.i, 25
  %8 = getelementptr inbounds i8, ptr %.val.i, i64 %7
  %9 = getelementptr inbounds nuw i8, ptr %4, i64 1072
  %10 = getelementptr inbounds nuw i8, ptr %8, i64 40
  %11 = load i32, ptr %10, align 8, !tbaa !19
  %.val.i9 = load ptr, ptr %9, align 8, !tbaa !24
  %12 = sext i32 %11 to i64
  %13 = getelementptr inbounds %struct.b2SolverSet, ptr %.val.i9, i64 %12
  %14 = getelementptr inbounds nuw i8, ptr %8, i64 44
  %15 = load i32, ptr %14, align 4, !tbaa !27
  %.val5.i = load ptr, ptr %13, align 8, !tbaa !14
  %16 = sext i32 %15 to i64
  %17 = getelementptr inbounds %struct.b2BodySim, ptr %.val5.i, i64 %16
  %18 = getelementptr inbounds nuw i8, ptr %8, i64 88
  %19 = load float, ptr %18, align 8, !tbaa !140
  %.sroa.06.0.vec.insert = insertelement <2 x float> poison, float %19, i64 0
  %20 = getelementptr inbounds nuw i8, ptr %17, i64 40
  %.sroa.06.4.copyload = load float, ptr %20, align 4, !tbaa !96
  %.sroa.06.4.vec.insert = insertelement <2 x float> %.sroa.06.0.vec.insert, float %.sroa.06.4.copyload, i64 1
  %.sroa.38.4..sroa_idx = getelementptr inbounds nuw i8, ptr %17, i64 44
  %.sroa.38.4.copyload = load float, ptr %.sroa.38.4..sroa_idx, align 4, !tbaa !96
  %.sroa.38.4.vec.insert = insertelement <2 x float> poison, float %.sroa.38.4.copyload, i64 0
  %21 = getelementptr inbounds nuw i8, ptr %8, i64 92
  %22 = load float, ptr %21, align 4, !tbaa !141
  %.sroa.38.12.vec.insert = insertelement <2 x float> %.sroa.38.4.vec.insert, float %22, i64 1
  %.fca.0.insert = insertvalue { <2 x float>, <2 x float> } poison, <2 x float> %.sroa.06.4.vec.insert, 0
  %.fca.1.insert = insertvalue { <2 x float>, <2 x float> } %.fca.0.insert, <2 x float> %.sroa.38.12.vec.insert, 1
  ret { <2 x float>, <2 x float> } %.fca.1.insert
}